target datalayout = "e-m:e-p270:32:32-p271:32:32-p272:64:64-i64:64-i128:128-f80:128-n8:16:32:64-S128"
target triple = "x86_64-pc-linux-gnu"

%class.PreprocessingAtomTypes = type { %"class.std::unique_ptr" }
%"class.std::unique_ptr" = type { %"struct.std::__uniq_ptr_data" }
%"struct.std::__uniq_ptr_data" = type { %"class.std::__uniq_ptr_impl" }
%"class.std::__uniq_ptr_impl" = type { %"class.std::tuple" }
%"class.std::tuple" = type { %"struct.std::_Tuple_impl" }
%"struct.std::_Tuple_impl" = type { %"struct.std::_Head_base.1" }
%"struct.std::_Head_base.1" = type { ptr }
%"class.PreprocessingAtomTypes::Impl" = type { %"class.std::vector", %"class.std::unordered_map" }
%"class.std::vector" = type { %"struct.std::_Vector_base" }
%"struct.std::_Vector_base" = type { %"struct.std::_Vector_base<AtomTypeData, std::allocator<AtomTypeData>>::_Vector_impl" }
%"struct.std::_Vector_base<AtomTypeData, std::allocator<AtomTypeData>>::_Vector_impl" = type { %"struct.std::_Vector_base<AtomTypeData, std::allocator<AtomTypeData>>::_Vector_impl_data" }
%"struct.std::_Vector_base<AtomTypeData, std::allocator<AtomTypeData>>::_Vector_impl_data" = type { ptr, ptr, ptr }
%"class.std::unordered_map" = type { %"class.std::_Hashtable" }
%"class.std::_Hashtable" = type { ptr, i64, %"struct.std::__detail::_Hash_node_base", i64, %"struct.std::__detail::_Prime_rehash_policy", ptr }
%"struct.std::__detail::_Hash_node_base" = type { ptr }
%"struct.std::__detail::_Prime_rehash_policy" = type { float, i64 }
%"class.std::__cxx11::basic_string" = type { %"struct.std::__cxx11::basic_string<char>::_Alloc_hider", i64, %union.anon }
%"struct.std::__cxx11::basic_string<char>::_Alloc_hider" = type { ptr }
%union.anon = type { i64, [8 x i8] }
%struct.AtomTypeData = type { %struct.t_atom, %"class.std::__cxx11::basic_string", %class.InteractionOfType, i32, i32 }
%struct.t_atom = type { float, float, float, float, i16, i16, i32, i32, i32, [4 x i8] }
%class.InteractionOfType = type <{ %"class.std::vector.30", %"struct.std::array", %"class.std::__cxx11::basic_string", i8, [7 x i8] }>
%"class.std::vector.30" = type { %"struct.std::_Vector_base.31" }
%"struct.std::_Vector_base.31" = type { %"struct.std::_Vector_base<int, std::allocator<int>>::_Vector_impl" }
%"struct.std::_Vector_base<int, std::allocator<int>>::_Vector_impl" = type { %"struct.std::_Vector_base<int, std::allocator<int>>::_Vector_impl_data" }
%"struct.std::_Vector_base<int, std::allocator<int>>::_Vector_impl_data" = type { ptr, ptr, ptr }
%"struct.std::array" = type { [12 x float] }
%"class.std::optional.35" = type { %"struct.std::_Optional_base.36" }
%"struct.std::_Optional_base.36" = type { %"struct.std::_Optional_payload.38" }
%"struct.std::_Optional_payload.38" = type { %"struct.std::_Optional_payload_base.base.40", [3 x i8] }
%"struct.std::_Optional_payload_base.base.40" = type <{ %"union.std::_Optional_payload_base<float>::_Storage", i8 }>
%"union.std::_Optional_payload_base<float>::_Storage" = type { float }
%"struct.std::_Optional_payload_base.39" = type <{ %"union.std::_Optional_payload_base<float>::_Storage", i8, [3 x i8] }>

; Function Attrs: mustprogress nounwind uwtable
define linkonce_odr noundef nonnull align 8 dereferenceable(8) ptr @_ZNSt10_Head_baseILm0EPN22PreprocessingAtomTypes4ImplELb0EE7_M_headERKS3_(ptr noundef nonnull align 8 dereferenceable(8) %0) #2 comdat align 2 {
  %2 = alloca ptr, align 8
  store ptr %0, ptr %2, align 8, !tbaa !36
  %3 = load ptr, ptr %2, align 8, !tbaa !36
  %4 = getelementptr inbounds nuw %"struct.std::_Head_base.1", ptr %3, i32 0, i32 0
  ret ptr %4
}

; Function Attrs: mustprogress nounwind uwtable
define linkonce_odr void @_ZNSt22_Optional_payload_baseIfE8_StorageIfLb1EEC2IJRfEEESt10in_place_tDpOT_(ptr noundef nonnull align 4 dereferenceable(4) %0, ptr noundef nonnull align 4 dereferenceable(4) %1) unnamed_addr #2 comdat align 2 {
  %3 = alloca ptr, align 8
  %4 = alloca ptr, align 8
  store ptr %0, ptr %3, align 8, !tbaa !171
  store ptr %1, ptr %4, align 8, !tbaa !159
  %5 = load ptr, ptr %3, align 8
  %6 = load ptr, ptr %4, align 8, !tbaa !159
  %7 = load float, ptr %6, align 4, !tbaa !173
  store float %7, ptr %5, align 4, !tbaa !105
  ret void
}

; Function Attrs: mustprogress nounwind uwtable
define linkonce_odr noundef nonnull align 8 dereferenceable(8) ptr @_ZNSt11_Tuple_implILm0EJPN22PreprocessingAtomTypes4ImplESt14default_deleteIS1_EEE7_M_headERKS5_(ptr noundef nonnull align 8 dereferenceable(8) %0) #2 comdat align 2 {
  %2 = alloca ptr, align 8
  store ptr %0, ptr %2, align 8, !tbaa !34
  %3 = load ptr, ptr %2, align 8, !tbaa !34
  %4 = call noundef nonnull align 8 dereferenceable(8) ptr @_ZNSt10_Head_baseILm0EPN22PreprocessingAtomTypes4ImplELb0EE7_M_headERKS3_(ptr noundef nonnull align 8 dereferenceable(8) %3) #16
  ret ptr %4
}

; Function Attrs: mustprogress nounwind uwtable
define linkonce_odr void @_ZNSt22_Optional_payload_baseIfE8_StorageIfLb1EEC2Ev(ptr noundef nonnull align 4 dereferenceable(4) %0) unnamed_addr #2 comdat align 2 {
  %2 = alloca ptr, align 8
  store ptr %0, ptr %2, align 8, !tbaa !171
  ret void
}

; Function Attrs: mustprogress uwtable
define linkonce_odr void @_ZNSt22_Optional_payload_baseIfEC2IJRfEEESt10in_place_tDpOT_(ptr noundef nonnull align 4 dereferenceable(5) %0, ptr noundef nonnull align 4 dereferenceable(4) %1) unnamed_addr #0 comdat align 2 {
  %3 = alloca ptr, align 8
  %4 = alloca ptr, align 8
  store ptr %0, ptr %3, align 8, !tbaa !167
  store ptr %1, ptr %4, align 8, !tbaa !159
  %5 = load ptr, ptr %3, align 8
  %6 = getelementptr inbounds nuw %"struct.std::_Optional_payload_base.39", ptr %5, i32 0, i32 0
  %7 = load ptr, ptr %4, align 8, !tbaa !159
  call void @_ZNSt22_Optional_payload_baseIfE8_StorageIfLb1EEC2IJRfEEESt10in_place_tDpOT_(ptr noundef nonnull align 4 dereferenceable(4) %6, ptr noundef nonnull align 4 dereferenceable(4) %7)
  %8 = getelementptr inbounds nuw %"struct.std::_Optional_payload_base.39", ptr %5, i32 0, i32 1
  store i8 1, ptr %8, align 4, !tbaa !169
  ret void
}

; Function Attrs: mustprogress nounwind uwtable
define linkonce_odr noundef nonnull align 8 dereferenceable(8) ptr @_ZSt12__get_helperILm0EPN22PreprocessingAtomTypes4ImplEJSt14default_deleteIS1_EEERKT0_RKSt11_Tuple_implIXT_EJS5_DpT1_EE(ptr noundef nonnull align 8 dereferenceable(8) %0) #2 comdat {
  %2 = alloca ptr, align 8
  store ptr %0, ptr %2, align 8, !tbaa !34
  %3 = load ptr, ptr %2, align 8, !tbaa !34
  %4 = call noundef nonnull align 8 dereferenceable(8) ptr @_ZNSt11_Tuple_implILm0EJPN22PreprocessingAtomTypes4ImplESt14default_deleteIS1_EEE7_M_headERKS5_(ptr noundef nonnull align 8 dereferenceable(8) %3) #16
  ret ptr %4
}

; Function Attrs: mustprogress nounwind uwtable
define linkonce_odr noundef i64 @_ZNKSt6vectorI12AtomTypeDataSaIS0_EE4sizeEv(ptr noundef nonnull align 8 dereferenceable(24) %0) #2 comdat align 2 {
  %2 = alloca ptr, align 8
  store ptr %0, ptr %2, align 8, !tbaa !106
  %3 = load ptr, ptr %2, align 8
  %4 = getelementptr inbounds nuw %"struct.std::_Vector_base", ptr %3, i32 0, i32 0
  %5 = getelementptr inbounds nuw %"struct.std::_Vector_base<AtomTypeData, std::allocator<AtomTypeData>>::_Vector_impl_data", ptr %4, i32 0, i32 1
  %6 = load ptr, ptr %5, align 8, !tbaa !108
  %7 = getelementptr inbounds nuw %"struct.std::_Vector_base", ptr %3, i32 0, i32 0
  %8 = getelementptr inbounds nuw %"struct.std::_Vector_base<AtomTypeData, std::allocator<AtomTypeData>>::_Vector_impl_data", ptr %7, i32 0, i32 0
  %9 = load ptr, ptr %8, align 8, !tbaa !111
  %10 = ptrtoint ptr %6 to i64
  %11 = ptrtoint ptr %9 to i64
  %12 = sub i64 %10, %11
  %13 = sdiv exact i64 %12, 192
  ret i64 %13
}

; Function Attrs: mustprogress nounwind uwtable
define linkonce_odr void @_ZNSt22_Optional_payload_baseIfEC2Ev(ptr noundef nonnull align 4 dereferenceable(5) %0) unnamed_addr #2 comdat align 2 {
  %2 = alloca ptr, align 8
  store ptr %0, ptr %2, align 8, !tbaa !167
  %3 = load ptr, ptr %2, align 8
  %4 = getelementptr inbounds nuw %"struct.std::_Optional_payload_base.39", ptr %3, i32 0, i32 0
  call void @_ZNSt22_Optional_payload_baseIfE8_StorageIfLb1EEC2Ev(ptr noundef nonnull align 4 dereferenceable(4) %4) #16
  %5 = getelementptr inbounds nuw %"struct.std::_Optional_payload_base.39", ptr %3, i32 0, i32 1
  store i8 0, ptr %5, align 4, !tbaa !169
  ret void
}

; Function Attrs: inlinehint mustprogress uwtable
define linkonce_odr void @_ZNSt17_Optional_payloadIfLb1ELb1ELb1EECI2St22_Optional_payload_baseIfEIJRfEEESt10in_place_tDpOT_(ptr noundef nonnull align 4 dereferenceable(5) %0, ptr noundef nonnull align 4 dereferenceable(4) %1) unnamed_addr #7 comdat align 2 {
  %3 = alloca ptr, align 8
  %4 = alloca ptr, align 8
  store ptr %0, ptr %3, align 8, !tbaa !165
  store ptr %1, ptr %4, align 8, !tbaa !159
  %5 = load ptr, ptr %3, align 8
  %6 = load ptr, ptr %4, align 8
  call void @_ZNSt22_Optional_payload_baseIfEC2IJRfEEESt10in_place_tDpOT_(ptr noundef nonnull align 4 dereferenceable(5) %5, ptr noundef nonnull align 4 dereferenceable(4) %6)
  ret void
}

; Function Attrs: mustprogress nounwind uwtable
define linkonce_odr noundef nonnull align 8 dereferenceable(8) ptr @_ZSt3getILm0EJPN22PreprocessingAtomTypes4ImplESt14default_deleteIS1_EEERKNSt13tuple_elementIXT_ESt5tupleIJDpT0_EEE4typeERKS9_(ptr noundef nonnull align 8 dereferenceable(8) %0) #2 comdat {
  %2 = alloca ptr, align 8
  store ptr %0, ptr %2, align 8, !tbaa !32
  %3 = load ptr, ptr %2, align 8, !tbaa !32
  %4 = call noundef nonnull align 8 dereferenceable(8) ptr @_ZSt12__get_helperILm0EPN22PreprocessingAtomTypes4ImplEJSt14default_deleteIS1_EEERKT0_RKSt11_Tuple_implIXT_EJS5_DpT1_EE(ptr noundef nonnull align 8 dereferenceable(8) %3) #16
  ret ptr %4
}

; Function Attrs: mustprogress nounwind uwtable
define linkonce_odr noundef i64 @_ZNK22PreprocessingAtomTypes4Impl4sizeEv(ptr noundef nonnull align 8 dereferenceable(80) %0) #2 comdat align 2 {
  %2 = alloca ptr, align 8
  store ptr %0, ptr %2, align 8, !tbaa !30
  %3 = load ptr, ptr %2, align 8
  %4 = getelementptr inbounds nuw %"class.PreprocessingAtomTypes::Impl", ptr %3, i32 0, i32 0
  %5 = call noundef i64 @_ZNKSt6vectorI12AtomTypeDataSaIS0_EE4sizeEv(ptr noundef nonnull align 8 dereferenceable(24) %4) #16
  ret i64 %5
}

; Function Attrs: mustprogress nounwind uwtable
define linkonce_odr void @_ZNSt17_Optional_payloadIfLb1ELb1ELb1EEC2Ev(ptr noundef nonnull align 4 dereferenceable(5) %0) unnamed_addr #2 comdat align 2 {
  %2 = alloca ptr, align 8
  store ptr %0, ptr %2, align 8, !tbaa !165
  %3 = load ptr, ptr %2, align 8
  call void @_ZNSt22_Optional_payload_baseIfEC2Ev(ptr noundef nonnull align 4 dereferenceable(5) %3) #16
  ret void
}

; Function Attrs: noinline noreturn nounwind uwtable
define linkonce_odr hidden void @__clang_call_terminate(ptr noundef %0) #3 comdat {
  %2 = call ptr @__cxa_begin_catch(ptr %0) #16
  call void @_ZSt9terminatev() #17
  unreachable
}

; Function Attrs: mustprogress uwtable
define linkonce_odr void @_ZNSt14_Optional_baseIfLb1ELb1EEC2IJRfETnNSt9enable_ifIX18is_constructible_vIfDpT_EEbE4typeELb0EEESt10in_place_tDpOS4_(ptr noundef nonnull align 4 dereferenceable(8) %0, ptr noundef nonnull align 4 dereferenceable(4) %1) unnamed_addr #0 comdat align 2 {
  %3 = alloca ptr, align 8
  %4 = alloca ptr, align 8
  store ptr %0, ptr %3, align 8, !tbaa !163
  store ptr %1, ptr %4, align 8, !tbaa !159
  %5 = load ptr, ptr %3, align 8
  %6 = getelementptr inbounds nuw %"struct.std::_Optional_base.36", ptr %5, i32 0, i32 0
  %7 = load ptr, ptr %4, align 8, !tbaa !159
  call void @_ZNSt17_Optional_payloadIfLb1ELb1ELb1EECI2St22_Optional_payload_baseIfEIJRfEEESt10in_place_tDpOT_(ptr noundef nonnull align 4 dereferenceable(5) %6, ptr noundef nonnull align 4 dereferenceable(4) %7)
  ret void
}

; Function Attrs: mustprogress nounwind uwtable
define linkonce_odr noundef ptr @_ZNKSt15__uniq_ptr_implIN22PreprocessingAtomTypes4ImplESt14default_deleteIS1_EE6_M_ptrEv(ptr noundef nonnull align 8 dereferenceable(8) %0) #2 comdat align 2 {
  %2 = alloca ptr, align 8
  store ptr %0, ptr %2, align 8, !tbaa !28
  %3 = load ptr, ptr %2, align 8
  %4 = getelementptr inbounds nuw %"class.std::__uniq_ptr_impl", ptr %3, i32 0, i32 0
  %5 = call noundef nonnull align 8 dereferenceable(8) ptr @_ZSt3getILm0EJPN22PreprocessingAtomTypes4ImplESt14default_deleteIS1_EEERKNSt13tuple_elementIXT_ESt5tupleIJDpT0_EEE4typeERKS9_(ptr noundef nonnull align 8 dereferenceable(8) %4) #16
  %6 = load ptr, ptr %5, align 8, !tbaa !30
  ret ptr %6
}

; Function Attrs: mustprogress uwtable
define noundef i64 @_ZNK22PreprocessingAtomTypes4sizeEv(ptr noundef nonnull align 8 dereferenceable(8) %0) #0 align 2 {
  %2 = alloca ptr, align 8
  store ptr %0, ptr %2, align 8, !tbaa !4
  %3 = load ptr, ptr %2, align 8
  %4 = getelementptr inbounds nuw %class.PreprocessingAtomTypes, ptr %3, i32 0, i32 0
  %5 = call noundef ptr @_ZNKSt10unique_ptrIN22PreprocessingAtomTypes4ImplESt14default_deleteIS1_EEptEv(ptr noundef nonnull align 8 dereferenceable(8) %4) #16
  %6 = call noundef i64 @_ZNK22PreprocessingAtomTypes4Impl4sizeEv(ptr noundef nonnull align 8 dereferenceable(80) %5)
  ret i64 %6
}

; Function Attrs: mustprogress nounwind uwtable
define linkonce_odr void @_ZNSt14_Optional_baseIfLb1ELb1EEC2Ev(ptr noundef nonnull align 4 dereferenceable(8) %0) unnamed_addr #2 comdat align 2 {
  %2 = alloca ptr, align 8
  store ptr %0, ptr %2, align 8, !tbaa !163
  %3 = load ptr, ptr %2, align 8
  %4 = getelementptr inbounds nuw %"struct.std::_Optional_base.36", ptr %3, i32 0, i32 0
  call void @_ZNSt17_Optional_payloadIfLb1ELb1ELb1EEC2Ev(ptr noundef nonnull align 4 dereferenceable(5) %4) #16
  ret void
}

; Function Attrs: mustprogress nounwind uwtable
define linkonce_odr void @_ZNSt8optionalIfEC2IRfTnNSt9enable_ifIX7__and_vISt6__not_ISt7is_sameIS0_NSt9remove_cvINSt16remove_referenceIT_E4typeEE4typeEEES4_IS5_ISt10in_place_tSC_EESt16is_constructibleIfJS8_EESt14is_convertibleIS8_fEEEbE4typeELb1EEEOS8_(ptr noundef nonnull align 4 dereferenceable(8) %0, ptr noundef nonnull align 4 dereferenceable(4) %1) unnamed_addr #2 comdat align 2 personality ptr @__gxx_personality_v0 {
  %3 = alloca ptr, align 8
  %4 = alloca ptr, align 8
  store ptr %0, ptr %3, align 8, !tbaa !161
  store ptr %1, ptr %4, align 8, !tbaa !159
  %5 = load ptr, ptr %3, align 8
  %6 = load ptr, ptr %4, align 8, !tbaa !159
  invoke void @_ZNSt14_Optional_baseIfLb1ELb1EEC2IJRfETnNSt9enable_ifIX18is_constructible_vIfDpT_EEbE4typeELb0EEESt10in_place_tDpOS4_(ptr noundef nonnull align 4 dereferenceable(8) %5, ptr noundef nonnull align 4 dereferenceable(4) %6)
          to label %7 unwind label %8

7:                                                ; preds = %2
  ret void

8:                                                ; preds = %2
  %9 = landingpad { ptr, i32 }
          catch ptr null
  %10 = extractvalue { ptr, i32 } %9, 0
  call void @__clang_call_terminate(ptr %10) #17
  unreachable
}

; Function Attrs: mustprogress nounwind uwtable
define linkonce_odr noundef ptr @_ZNKSt10unique_ptrIN22PreprocessingAtomTypes4ImplESt14default_deleteIS1_EE3getEv(ptr noundef nonnull align 8 dereferenceable(8) %0) #2 comdat align 2 {
  %2 = alloca ptr, align 8
  store ptr %0, ptr %2, align 8, !tbaa !13
  %3 = load ptr, ptr %2, align 8
  %4 = getelementptr inbounds nuw %"class.std::unique_ptr", ptr %3, i32 0, i32 0
  %5 = call noundef ptr @_ZNKSt15__uniq_ptr_implIN22PreprocessingAtomTypes4ImplESt14default_deleteIS1_EE6_M_ptrEv(ptr noundef nonnull align 8 dereferenceable(8) %4) #16
  ret ptr %5
}

; Function Attrs: mustprogress uwtable
define linkonce_odr noundef i64 @_ZN3gmx5ssizeI22PreprocessingAtomTypesEElRKT_(ptr noundef nonnull align 8 dereferenceable(8) %0) #0 comdat {
  %2 = alloca ptr, align 8
  store ptr %0, ptr %2, align 8, !tbaa !4
  %3 = load ptr, ptr %2, align 8, !tbaa !4
  %4 = call noundef i64 @_ZNK22PreprocessingAtomTypes4sizeEv(ptr noundef nonnull align 8 dereferenceable(8) %3)
  ret i64 %4
}

; Function Attrs: mustprogress nounwind uwtable
define linkonce_odr void @_ZNSt8optionalIfEC2ESt9nullopt_t(ptr noundef nonnull align 4 dereferenceable(8) %0) unnamed_addr #2 comdat align 2 {
  %2 = alloca ptr, align 8
  store ptr %0, ptr %2, align 8, !tbaa !161
  %3 = load ptr, ptr %2, align 8
  call void @_ZNSt14_Optional_baseIfLb1ELb1EEC2Ev(ptr noundef nonnull align 4 dereferenceable(8) %3) #16
  ret void
}

; Function Attrs: mustprogress nounwind uwtable
define linkonce_odr i64 @_ZSt13make_optionalIRfENSt9enable_ifIX18is_constructible_vINSt5decayIT_E4typeES3_EESt8optionalIS5_EE4typeEOS3_(ptr noundef nonnull align 4 dereferenceable(4) %0) #2 comdat {
  %2 = alloca %"class.std::optional.35", align 4
  %3 = alloca ptr, align 8
  store ptr %0, ptr %3, align 8, !tbaa !159
  %4 = load ptr, ptr %3, align 8, !tbaa !159
  call void @_ZNSt8optionalIfEC2IRfTnNSt9enable_ifIX7__and_vISt6__not_ISt7is_sameIS0_NSt9remove_cvINSt16remove_referenceIT_E4typeEE4typeEEES4_IS5_ISt10in_place_tSC_EESt16is_constructibleIfJS8_EESt14is_convertibleIS8_fEEEbE4typeELb1EEEOS8_(ptr noundef nonnull align 4 dereferenceable(8) %2, ptr noundef nonnull align 4 dereferenceable(4) %4) #16
  %5 = getelementptr inbounds nuw %"class.std::optional.35", ptr %2, i32 0, i32 0
  %6 = getelementptr inbounds nuw %"struct.std::_Optional_base.36", ptr %5, i32 0, i32 0
  %7 = load i64, ptr %6, align 4
  ret i64 %7
}

; Function Attrs: mustprogress nounwind uwtable
define linkonce_odr noundef nonnull align 8 dereferenceable(192) ptr @_ZNSt6vectorI12AtomTypeDataSaIS0_EEixEm(ptr noundef nonnull align 8 dereferenceable(24) %0, i64 noundef %1) #2 comdat align 2 {
  %3 = alloca ptr, align 8
  %4 = alloca i64, align 8
  store ptr %0, ptr %3, align 8, !tbaa !106
  store i64 %1, ptr %4, align 8, !tbaa !42
  %5 = load ptr, ptr %3, align 8
  %6 = getelementptr inbounds nuw %"struct.std::_Vector_base", ptr %5, i32 0, i32 0
  %7 = getelementptr inbounds nuw %"struct.std::_Vector_base<AtomTypeData, std::allocator<AtomTypeData>>::_Vector_impl_data", ptr %6, i32 0, i32 0
  %8 = load ptr, ptr %7, align 8, !tbaa !111
  %9 = load i64, ptr %4, align 8, !tbaa !42
  %10 = getelementptr inbounds nuw %struct.AtomTypeData, ptr %8, i64 %9
  ret ptr %10
}

; Function Attrs: mustprogress nounwind uwtable
define linkonce_odr noundef ptr @_ZNKSt10unique_ptrIN22PreprocessingAtomTypes4ImplESt14default_deleteIS1_EEptEv(ptr noundef nonnull align 8 dereferenceable(8) %0) #2 comdat align 2 {
  %2 = alloca ptr, align 8
  store ptr %0, ptr %2, align 8, !tbaa !13
  %3 = load ptr, ptr %2, align 8
  %4 = call noundef ptr @_ZNKSt10unique_ptrIN22PreprocessingAtomTypes4ImplESt14default_deleteIS1_EE3getEv(ptr noundef nonnull align 8 dereferenceable(8) %3) #16
  ret ptr %4
}

; Function Attrs: mustprogress uwtable
define noundef zeroext i1 @_ZNK22PreprocessingAtomTypes5isSetEi(ptr noundef nonnull align 8 dereferenceable(8) %0, i32 noundef %1) #0 align 2 {
  %3 = alloca ptr, align 8
  %4 = alloca i32, align 4
  store ptr %0, ptr %3, align 8, !tbaa !4
  store i32 %1, ptr %4, align 4, !tbaa !9
  %5 = load ptr, ptr %3, align 8
  %6 = load i32, ptr %4, align 4, !tbaa !9
  %7 = icmp sge i32 %6, 0
  br i1 %7, label %8, label %13

8:                                                ; preds = %2
  %9 = load i32, ptr %4, align 4, !tbaa !9
  %10 = sext i32 %9 to i64
  %11 = call noundef i64 @_ZN3gmx5ssizeI22PreprocessingAtomTypesEElRKT_(ptr noundef nonnull align 8 dereferenceable(8) %5)
  %12 = icmp slt i64 %10, %11
  br label %13

13:                                               ; preds = %8, %2
  %14 = phi i1 [ false, %2 ], [ %12, %8 ]
  ret i1 %14
}

; Function Attrs: mustprogress uwtable
define i64 @_ZNK22PreprocessingAtomTypes22atomChargeFromAtomTypeEi(ptr noundef nonnull align 8 dereferenceable(8) %0, i32 noundef %1) #0 align 2 {
  %3 = alloca %"class.std::optional.35", align 4
  %4 = alloca ptr, align 8
  %5 = alloca i32, align 4
  store ptr %0, ptr %4, align 8, !tbaa !4
  store i32 %1, ptr %5, align 4, !tbaa !9
  %6 = load ptr, ptr %4, align 8
  %7 = load i32, ptr %5, align 4, !tbaa !9
  %8 = call noundef zeroext i1 @_ZNK22PreprocessingAtomTypes5isSetEi(ptr noundef nonnull align 8 dereferenceable(8) %6, i32 noundef %7)
  br i1 %8, label %9, label %21

9:                                                ; preds = %2
  %10 = getelementptr inbounds nuw %class.PreprocessingAtomTypes, ptr %6, i32 0, i32 0
  %11 = call noundef ptr @_ZNKSt10unique_ptrIN22PreprocessingAtomTypes4ImplESt14default_deleteIS1_EEptEv(ptr noundef nonnull align 8 dereferenceable(8) %10) #16
  %12 = getelementptr inbounds nuw %"class.PreprocessingAtomTypes::Impl", ptr %11, i32 0, i32 0
  %13 = load i32, ptr %5, align 4, !tbaa !9
  %14 = sext i32 %13 to i64
  %15 = call noundef nonnull align 8 dereferenceable(192) ptr @_ZNSt6vectorI12AtomTypeDataSaIS0_EEixEm(ptr noundef nonnull align 8 dereferenceable(24) %12, i64 noundef %14) #16
  %16 = getelementptr inbounds nuw %struct.AtomTypeData, ptr %15, i32 0, i32 0
  %17 = getelementptr inbounds nuw %struct.t_atom, ptr %16, i32 0, i32 1
  %18 = call i64 @_ZSt13make_optionalIRfENSt9enable_ifIX18is_constructible_vINSt5decayIT_E4typeES3_EESt8optionalIS5_EE4typeEOS3_(ptr noundef nonnull align 4 dereferenceable(4) %17) #16
  %19 = getelementptr inbounds nuw %"class.std::optional.35", ptr %3, i32 0, i32 0
  %20 = getelementptr inbounds nuw %"struct.std::_Optional_base.36", ptr %19, i32 0, i32 0
  store i64 %18, ptr %20, align 4
  br label %22

21:                                               ; preds = %2
  call void @_ZNSt8optionalIfEC2ESt9nullopt_t(ptr noundef nonnull align 4 dereferenceable(8) %3) #16
  br label %22

22:                                               ; preds = %21, %9
  %23 = getelementptr inbounds nuw %"class.std::optional.35", ptr %3, i32 0, i32 0
  %24 = getelementptr inbounds nuw %"struct.std::_Optional_base.36", ptr %23, i32 0, i32 0
  %25 = load i64, ptr %24, align 4
  ret i64 %25
}